target datalayout = "e-m:e-p270:32:32-p271:32:32-p272:64:64-i64:64-i128:128-f80:128-n8:16:32:64-S128"
target triple = "x86_64-pc-linux-gnu"

%struct.ARKodeMemRec = type { ptr, double, ptr, i32, i32, double, double, ptr, i32, double, ptr, i32, i32, ptr, ptr, i32, ptr, ptr, i32, ptr, ptr, ptr, ptr, ptr, ptr, ptr, ptr, ptr, ptr, ptr, ptr, ptr, ptr, ptr, i32, ptr, ptr, i32, ptr, i32, ptr, ptr, ptr, ptr, ptr, ptr, ptr, ptr, ptr, ptr, ptr, ptr, ptr, ptr, ptr, ptr, ptr, ptr, ptr, ptr, ptr, ptr, ptr, ptr, ptr, ptr, i32, ptr, ptr, ptr, ptr, ptr, ptr, ptr, i32, ptr, ptr, ptr, i32, ptr, ptr, ptr, ptr, ptr, ptr, ptr, i32, i32, i32, i32, double, double, double, double, double, double, double, double, double, double, i32, ptr, i64, i32, i32, i32, i32, i64, i64, i32, i64, i64, i64, i64, i64, i64, i64, double, double, double, double, double, i32, double, double, i32, i32, i32, i32, i32, i32, i32, i32, ptr, i32, ptr, ptr, ptr, ptr, i32, i32, i32 }
%struct._generic_SUNMatrix = type { ptr, ptr, ptr }
%struct._generic_SUNMatrix_Ops = type { ptr, ptr, ptr, ptr, ptr, ptr, ptr, ptr, ptr, ptr }
%struct.ARKLsMassMemRec = type { i32, i32, ptr, ptr, ptr, ptr, double, double, i32, double, i64, i64, i64, i64, i64, i64, i64, i64, i64, ptr, ptr, ptr, ptr, ptr, ptr, ptr, ptr, ptr, ptr, i32 }

@.str = private unnamed_addr constant [118 x i8] c"generated/home/dtcxzyw/WorkSpace/Projects/compilers/llvm-opt-benchmark/bench/sundials/sundials/src/arkode/arkode_ls.c\00", align 1
@__func__.arkLsMTimes = private unnamed_addr constant [12 x i8] c"arkLsMTimes\00", align 1
@.str.39 = private unnamed_addr constant [49 x i8] c"Error in user mass matrix-vector product routine\00", align 1
@.str.40 = private unnamed_addr constant [54 x i8] c"Error in SUNMatrix mass matrix-vector product routine\00", align 1
@.str.41 = private unnamed_addr constant [43 x i8] c"Missing mass matrix-vector product routine\00", align 1
@.str.63 = private unnamed_addr constant [27 x i8] c"Integrator memory is NULL.\00", align 1
@.str.65 = private unnamed_addr constant [35 x i8] c"Mass matrix solver memory is NULL.\00", align 1

; Function Attrs: nounwind uwtable
define i32 @arkLs_AccessARKODEMassMem(ptr noundef %0, ptr noundef %1, ptr noundef %2, ptr noundef %3) #0 {
  %5 = alloca i32, align 4
  %6 = alloca ptr, align 8
  %7 = alloca ptr, align 8
  %8 = alloca ptr, align 8
  %9 = alloca ptr, align 8
  %10 = alloca ptr, align 8
  %11 = alloca i32, align 4
  store ptr %0, ptr %6, align 8, !tbaa !3
  store ptr %1, ptr %7, align 8, !tbaa !155
  store ptr %2, ptr %8, align 8, !tbaa !170
  store ptr %3, ptr %9, align 8, !tbaa !159
  call void @llvm.lifetime.start.p0(i64 8, ptr %10) #7
  %12 = load ptr, ptr %6, align 8, !tbaa !3
  %13 = icmp eq ptr %12, null
  br i1 %13, label %14, label %16

14:                                               ; preds = %4
  %15 = load ptr, ptr %7, align 8, !tbaa !155
  call void (ptr, i32, i32, ptr, ptr, ptr, ...) @arkProcessError(ptr noundef null, i32 noundef -1, i32 noundef 4086, ptr noundef %15, ptr noundef @.str, ptr noundef @.str.63)
  store i32 -1, ptr %5, align 4
  store i32 1, ptr %11, align 4
  br label %35

16:                                               ; preds = %4
  %17 = load ptr, ptr %6, align 8, !tbaa !3
  %18 = load ptr, ptr %8, align 8, !tbaa !170
  store ptr %17, ptr %18, align 8, !tbaa !11
  %19 = load ptr, ptr %8, align 8, !tbaa !170
  %20 = load ptr, ptr %19, align 8, !tbaa !11
  %21 = getelementptr inbounds nuw %struct.ARKodeMemRec, ptr %20, i32 0, i32 69
  %22 = load ptr, ptr %21, align 8, !tbaa !97
  %23 = load ptr, ptr %8, align 8, !tbaa !170
  %24 = load ptr, ptr %23, align 8, !tbaa !11
  %25 = call ptr %22(ptr noundef %24)
  store ptr %25, ptr %10, align 8, !tbaa !3
  %26 = load ptr, ptr %10, align 8, !tbaa !3
  %27 = icmp eq ptr %26, null
  br i1 %27, label %28, label %32

28:                                               ; preds = %16
  %29 = load ptr, ptr %8, align 8, !tbaa !170
  %30 = load ptr, ptr %29, align 8, !tbaa !11
  %31 = load ptr, ptr %7, align 8, !tbaa !155
  call void (ptr, i32, i32, ptr, ptr, ptr, ...) @arkProcessError(ptr noundef %30, i32 noundef -6, i32 noundef 4094, ptr noundef %31, ptr noundef @.str, ptr noundef @.str.65)
  store i32 -6, ptr %5, align 4
  store i32 1, ptr %11, align 4
  br label %35

32:                                               ; preds = %16
  %33 = load ptr, ptr %10, align 8, !tbaa !3
  %34 = load ptr, ptr %9, align 8, !tbaa !159
  store ptr %33, ptr %34, align 8, !tbaa !101
  store i32 0, ptr %5, align 4
  store i32 1, ptr %11, align 4
  br label %35

35:                                               ; preds = %32, %28, %14
  call void @llvm.lifetime.end.p0(i64 8, ptr %10) #7
  %36 = load i32, ptr %5, align 4
  ret i32 %36
}

; Function Attrs: nounwind uwtable
define i32 @arkLsMTimes(ptr noundef %0, ptr noundef %1, ptr noundef %2) #0 {
  %4 = alloca i32, align 4
  %5 = alloca ptr, align 8
  %6 = alloca ptr, align 8
  %7 = alloca ptr, align 8
  %8 = alloca ptr, align 8
  %9 = alloca ptr, align 8
  %10 = alloca i32, align 4
  %11 = alloca i32, align 4
  store ptr %0, ptr %5, align 8, !tbaa !3
  store ptr %1, ptr %6, align 8, !tbaa !78
  store ptr %2, ptr %7, align 8, !tbaa !78
  call void @llvm.lifetime.start.p0(i64 8, ptr %8) #7
  call void @llvm.lifetime.start.p0(i64 8, ptr %9) #7
  call void @llvm.lifetime.start.p0(i64 4, ptr %10) #7
  %12 = load ptr, ptr %5, align 8, !tbaa !3
  %13 = call i32 @arkLs_AccessARKODEMassMem(ptr noundef %12, ptr noundef @__func__.arkLsMTimes, ptr noundef %8, ptr noundef %9)
  store i32 %13, ptr %10, align 4, !tbaa !30
  %14 = load i32, ptr %10, align 4, !tbaa !30
  %15 = icmp ne i32 %14, 0
  br i1 %15, label %16, label %18

16:                                               ; preds = %3
  %17 = load i32, ptr %10, align 4, !tbaa !30
  store i32 %17, ptr %4, align 4
  store i32 1, ptr %11, align 4
  br label %86

18:                                               ; preds = %3
  %19 = load ptr, ptr %9, align 8, !tbaa !101
  %20 = getelementptr inbounds nuw %struct.ARKLsMassMemRec, ptr %19, i32 0, i32 27
  %21 = load ptr, ptr %20, align 8, !tbaa !128
  %22 = icmp ne ptr %21, null
  br i1 %22, label %23, label %48

23:                                               ; preds = %18
  %24 = load ptr, ptr %9, align 8, !tbaa !101
  %25 = getelementptr inbounds nuw %struct.ARKLsMassMemRec, ptr %24, i32 0, i32 27
  %26 = load ptr, ptr %25, align 8, !tbaa !128
  %27 = load ptr, ptr %6, align 8, !tbaa !78
  %28 = load ptr, ptr %7, align 8, !tbaa !78
  %29 = load ptr, ptr %8, align 8, !tbaa !11
  %30 = getelementptr inbounds nuw %struct.ARKodeMemRec, ptr %29, i32 0, i32 98
  %31 = load double, ptr %30, align 8, !tbaa !153
  %32 = load ptr, ptr %9, align 8, !tbaa !101
  %33 = getelementptr inbounds nuw %struct.ARKLsMassMemRec, ptr %32, i32 0, i32 28
  %34 = load ptr, ptr %33, align 8, !tbaa !129
  %35 = call i32 %26(ptr noundef %27, ptr noundef %28, double noundef %31, ptr noundef %34)
  store i32 %35, ptr %10, align 4, !tbaa !30
  %36 = load i32, ptr %10, align 4, !tbaa !30
  %37 = icmp eq i32 %36, 0
  br i1 %37, label %38, label %43

38:                                               ; preds = %23
  %39 = load ptr, ptr %9, align 8, !tbaa !101
  %40 = getelementptr inbounds nuw %struct.ARKLsMassMemRec, ptr %39, i32 0, i32 13
  %41 = load i64, ptr %40, align 8, !tbaa !142
  %42 = add nsw i64 %41, 1
  store i64 %42, ptr %40, align 8, !tbaa !142
  br label %46

43:                                               ; preds = %23
  %44 = load ptr, ptr %8, align 8, !tbaa !11
  %45 = load i32, ptr %10, align 4, !tbaa !30
  call void (ptr, i32, i32, ptr, ptr, ptr, ...) @arkProcessError(ptr noundef %44, i32 noundef %45, i32 noundef 2458, ptr noundef @__func__.arkLsMTimes, ptr noundef @.str, ptr noundef @.str.39)
  br label %46

46:                                               ; preds = %43, %38
  %47 = load i32, ptr %10, align 4, !tbaa !30
  store i32 %47, ptr %4, align 4
  store i32 1, ptr %11, align 4
  br label %86

48:                                               ; preds = %18
  %49 = load ptr, ptr %9, align 8, !tbaa !101
  %50 = getelementptr inbounds nuw %struct.ARKLsMassMemRec, ptr %49, i32 0, i32 3
  %51 = load ptr, ptr %50, align 8, !tbaa !108
  %52 = icmp ne ptr %51, null
  br i1 %52, label %53, label %82

53:                                               ; preds = %48
  %54 = load ptr, ptr %9, align 8, !tbaa !101
  %55 = getelementptr inbounds nuw %struct.ARKLsMassMemRec, ptr %54, i32 0, i32 3
  %56 = load ptr, ptr %55, align 8, !tbaa !108
  %57 = getelementptr inbounds nuw %struct._generic_SUNMatrix, ptr %56, i32 0, i32 1
  %58 = load ptr, ptr %57, align 8, !tbaa !103
  %59 = getelementptr inbounds nuw %struct._generic_SUNMatrix_Ops, ptr %58, i32 0, i32 8
  %60 = load ptr, ptr %59, align 8, !tbaa !149
  %61 = icmp ne ptr %60, null
  br i1 %61, label %62, label %81

62:                                               ; preds = %53
  %63 = load ptr, ptr %9, align 8, !tbaa !101
  %64 = getelementptr inbounds nuw %struct.ARKLsMassMemRec, ptr %63, i32 0, i32 3
  %65 = load ptr, ptr %64, align 8, !tbaa !108
  %66 = load ptr, ptr %6, align 8, !tbaa !78
  %67 = load ptr, ptr %7, align 8, !tbaa !78
  %68 = call i32 @SUNMatMatvec(ptr noundef %65, ptr noundef %66, ptr noundef %67)
  store i32 %68, ptr %10, align 4, !tbaa !30
  %69 = load i32, ptr %10, align 4, !tbaa !30
  %70 = icmp eq i32 %69, 0
  br i1 %70, label %71, label %76

71:                                               ; preds = %62
  %72 = load ptr, ptr %9, align 8, !tbaa !101
  %73 = getelementptr inbounds nuw %struct.ARKLsMassMemRec, ptr %72, i32 0, i32 13
  %74 = load i64, ptr %73, align 8, !tbaa !142
  %75 = add nsw i64 %74, 1
  store i64 %75, ptr %73, align 8, !tbaa !142
  br label %79

76:                                               ; preds = %62
  %77 = load ptr, ptr %8, align 8, !tbaa !11
  %78 = load i32, ptr %10, align 4, !tbaa !30
  call void (ptr, i32, i32, ptr, ptr, ptr, ...) @arkProcessError(ptr noundef %77, i32 noundef %78, i32 noundef 2472, ptr noundef @__func__.arkLsMTimes, ptr noundef @.str, ptr noundef @.str.40)
  br label %79

79:                                               ; preds = %76, %71
  %80 = load i32, ptr %10, align 4, !tbaa !30
  store i32 %80, ptr %4, align 4
  store i32 1, ptr %11, align 4
  br label %86

81:                                               ; preds = %53
  br label %82

82:                                               ; preds = %81, %48
  br label %83

83:                                               ; preds = %82
  %84 = load ptr, ptr %8, align 8, !tbaa !11
  %85 = load i32, ptr %10, align 4, !tbaa !30
  call void (ptr, i32, i32, ptr, ptr, ptr, ...) @arkProcessError(ptr noundef %84, i32 noundef %85, i32 noundef 2480, ptr noundef @__func__.arkLsMTimes, ptr noundef @.str, ptr noundef @.str.41)
  store i32 -1, ptr %4, align 4
  store i32 1, ptr %11, align 4
  br label %86

86:                                               ; preds = %83, %79, %46, %16
  call void @llvm.lifetime.end.p0(i64 4, ptr %10) #7
  call void @llvm.lifetime.end.p0(i64 8, ptr %9) #7
  call void @llvm.lifetime.end.p0(i64 8, ptr %8) #7
  %87 = load i32, ptr %4, align 4
  ret i32 %87
}