; Function Attrs: nounwind uwtable
define i32 @arkLsMTimes(ptr noundef %0, ptr noundef %1, ptr noundef %2) #0 {
  %4 = icmp eq ptr %0, null
  br i1 %4, label %5, label %6

5:                                                ; preds = %3
  tail call void (ptr, i32, i32, ptr, ptr, ptr, ...) @arkProcessError(ptr noundef null, i32 noundef -1, i32 noundef 4086, ptr noundef nonnull @__func__.arkLsMTimes, ptr noundef nonnull @.str, ptr noundef nonnull @.str.63) #13
  br label %arkLs_AccessARKODEMassMem.exit.thread

6:                                                ; preds = %3
  %7 = getelementptr inbounds nuw i8, ptr %0, i64 536
  %8 = load ptr, ptr %7, align 8, !tbaa !75
  %9 = tail call ptr %8(ptr noundef nonnull %0) #13
  %10 = icmp eq ptr %9, null
  br i1 %10, label %11, label %arkLs_AccessARKODEMassMem.exit

11:                                               ; preds = %6
  tail call void (ptr, i32, i32, ptr, ptr, ptr, ...) @arkProcessError(ptr noundef nonnull %0, i32 noundef -6, i32 noundef 4094, ptr noundef nonnull @__func__.arkLsMTimes, ptr noundef nonnull @.str, ptr noundef nonnull @.str.65) #13
  br label %arkLs_AccessARKODEMassMem.exit.thread

arkLs_AccessARKODEMassMem.exit:                   ; preds = %6
  %12 = getelementptr inbounds nuw i8, ptr %9, i64 208
  %13 = load ptr, ptr %12, align 8, !tbaa !118
  %.not19 = icmp eq ptr %13, null
  br i1 %.not19, label %26, label %14

14:                                               ; preds = %arkLs_AccessARKODEMassMem.exit
  %15 = getelementptr inbounds nuw i8, ptr %0, i64 752
  %16 = load double, ptr %15, align 8, !tbaa !130
  %17 = getelementptr inbounds nuw i8, ptr %9, i64 216
  %18 = load ptr, ptr %17, align 8, !tbaa !125
  %19 = tail call i32 %13(ptr noundef %1, ptr noundef %2, double noundef %16, ptr noundef %18) #13
  %20 = icmp eq i32 %19, 0
  br i1 %20, label %21, label %25

21:                                               ; preds = %14
  %22 = getelementptr inbounds nuw i8, ptr %9, i64 96
  %23 = load i64, ptr %22, align 8, !tbaa !131
  %24 = add nsw i64 %23, 1
  store i64 %24, ptr %22, align 8, !tbaa !131
  br label %arkLs_AccessARKODEMassMem.exit.thread

25:                                               ; preds = %14
  tail call void (ptr, i32, i32, ptr, ptr, ptr, ...) @arkProcessError(ptr noundef nonnull %0, i32 noundef %19, i32 noundef 2458, ptr noundef nonnull @__func__.arkLsMTimes, ptr noundef nonnull @.str, ptr noundef nonnull @.str.39) #13
  br label %arkLs_AccessARKODEMassMem.exit.thread

26:                                               ; preds = %arkLs_AccessARKODEMassMem.exit
  %27 = getelementptr inbounds nuw i8, ptr %9, i64 16
  %28 = load ptr, ptr %27, align 8, !tbaa !86
  %.not20 = icmp eq ptr %28, null
  br i1 %.not20, label %42, label %29

29:                                               ; preds = %26
  %30 = getelementptr inbounds nuw i8, ptr %28, i64 8
  %31 = load ptr, ptr %30, align 8, !tbaa !81
  %32 = getelementptr inbounds nuw i8, ptr %31, i64 64
  %33 = load ptr, ptr %32, align 8, !tbaa !119
  %.not21 = icmp eq ptr %33, null
  br i1 %.not21, label %42, label %34

34:                                               ; preds = %29
  %35 = tail call i32 @SUNMatMatvec(ptr noundef nonnull %28, ptr noundef %1, ptr noundef %2) #13
  %36 = icmp eq i32 %35, 0
  br i1 %36, label %37, label %41

37:                                               ; preds = %34
  %38 = getelementptr inbounds nuw i8, ptr %9, i64 96
  %39 = load i64, ptr %38, align 8, !tbaa !131
  %40 = add nsw i64 %39, 1
  store i64 %40, ptr %38, align 8, !tbaa !131
  br label %arkLs_AccessARKODEMassMem.exit.thread

41:                                               ; preds = %34
  tail call void (ptr, i32, i32, ptr, ptr, ptr, ...) @arkProcessError(ptr noundef nonnull %0, i32 noundef %35, i32 noundef 2472, ptr noundef nonnull @__func__.arkLsMTimes, ptr noundef nonnull @.str, ptr noundef nonnull @.str.40) #13
  br label %arkLs_AccessARKODEMassMem.exit.thread

42:                                               ; preds = %26, %29
  tail call void (ptr, i32, i32, ptr, ptr, ptr, ...) @arkProcessError(ptr noundef nonnull %0, i32 noundef 0, i32 noundef 2480, ptr noundef nonnull @__func__.arkLsMTimes, ptr noundef nonnull @.str, ptr noundef nonnull @.str.41) #13
  br label %arkLs_AccessARKODEMassMem.exit.thread

arkLs_AccessARKODEMassMem.exit.thread:            ; preds = %11, %5, %37, %41, %21, %25, %42
  %.0 = phi i32 [ -1, %42 ], [ %19, %25 ], [ 0, %21 ], [ %35, %41 ], [ 0, %37 ], [ -6, %11 ], [ -1, %5 ]
  ret i32 %.0
}